target datalayout = "e-m:e-p270:32:32-p271:32:32-p272:64:64-i64:64-i128:128-f80:128-n8:16:32:64-S128"
target triple = "x86_64-pc-linux-gnu"

@.str.13 = private unnamed_addr constant [1 x i8] zeroinitializer, align 1
@.str.26 = private unnamed_addr constant [20 x i8] c"Add arguments '%s'\0A\00", align 1
@.str.27 = private unnamed_addr constant [94 x i8] c"Internal email parser error: message is pointer is NULL when trying to add message arguments\0A\00", align 1
@.str.28 = private unnamed_addr constant [25 x i8] c"Can't parse header \22%s\22\0A\00", align 1
@.str.29 = private unnamed_addr constant [36 x i8] c"Unbalanced quote character in \22%s\22\0A\00", align 1
@.str.30 = private unnamed_addr constant [106 x i8] c"Can't parse header \22%s\22 - if you believe this file contains a missed virus, report it to bugs@clamav.net\0A\00", align 1
@.str.31 = private unnamed_addr constant [2 x i8] c"=\00", align 1
@.str.32 = private unnamed_addr constant [30 x i8] c"Ignoring empty field in \22%s\22\0A\00", align 1

; Function Attrs: nounwind uwtable
define void @messageAddArguments(ptr noundef %0, ptr noundef %1) #0 {
  %3 = alloca ptr, align 8
  %4 = alloca ptr, align 8
  %5 = alloca ptr, align 8
  %6 = alloca ptr, align 8
  %7 = alloca ptr, align 8
  %8 = alloca ptr, align 8
  %9 = alloca ptr, align 8
  %10 = alloca i64, align 8
  %11 = alloca ptr, align 8
  %12 = alloca ptr, align 8
  %13 = alloca i64, align 8
  store ptr %0, ptr %3, align 8
  store ptr %1, ptr %4, align 8
  %14 = load ptr, ptr %4, align 8
  store ptr %14, ptr %5, align 8
  %15 = load ptr, ptr %5, align 8
  call void (ptr, ...) @cli_dbgmsg(ptr noundef @.str.26, ptr noundef %15)
  %16 = load ptr, ptr %5, align 8
  %17 = icmp eq ptr %16, null
  br i1 %17, label %18, label %19

18:                                               ; preds = %2
  call void (ptr, ...) @cli_errmsg(ptr noundef @.str.27)
  br label %240

19:                                               ; preds = %2
  br label %20

20:                                               ; preds = %239, %133, %42, %19
  %21 = load ptr, ptr %5, align 8
  %22 = load i8, ptr %21, align 1
  %23 = icmp ne i8 %22, 0
  br i1 %23, label %24, label %240

24:                                               ; preds = %20
  store i64 0, ptr %10, align 8
  %25 = call ptr @__ctype_b_loc() #12
  %26 = load ptr, ptr %25, align 8
  %27 = load ptr, ptr %5, align 8
  %28 = load i8, ptr %27, align 1
  %29 = sext i8 %28 to i32
  %30 = and i32 %29, 255
  %31 = sext i32 %30 to i64
  %32 = getelementptr inbounds i16, ptr %26, i64 %31
  %33 = load i16, ptr %32, align 2
  %34 = zext i16 %33 to i32
  %35 = and i32 %34, 8192
  %36 = icmp ne i32 %35, 0
  br i1 %36, label %42, label %37

37:                                               ; preds = %24
  %38 = load ptr, ptr %5, align 8
  %39 = load i8, ptr %38, align 1
  %40 = sext i8 %39 to i32
  %41 = icmp eq i32 %40, 59
  br i1 %41, label %42, label %45

42:                                               ; preds = %37, %24
  %43 = load ptr, ptr %5, align 8
  %44 = getelementptr inbounds i8, ptr %43, i32 1
  store ptr %44, ptr %5, align 8
  br label %20

45:                                               ; preds = %37
  %46 = load ptr, ptr %5, align 8
  store ptr %46, ptr %6, align 8
  %47 = load ptr, ptr %5, align 8
  %48 = call ptr @strchr(ptr noundef %47, i32 noundef 61) #13
  store ptr %48, ptr %8, align 8
  %49 = load ptr, ptr %8, align 8
  %50 = icmp eq ptr %49, null
  br i1 %50, label %51, label %54

51:                                               ; preds = %45
  %52 = load ptr, ptr %5, align 8
  %53 = call ptr @strchr(ptr noundef %52, i32 noundef 58) #13
  store ptr %53, ptr %8, align 8
  br label %54

54:                                               ; preds = %51, %45
  %55 = load ptr, ptr %8, align 8
  %56 = icmp eq ptr %55, null
  br i1 %56, label %57, label %59

57:                                               ; preds = %54
  %58 = load ptr, ptr %4, align 8
  call void (ptr, ...) @cli_dbgmsg(ptr noundef @.str.28, ptr noundef %58)
  br label %240

59:                                               ; preds = %54
  %60 = load ptr, ptr %8, align 8
  %61 = getelementptr inbounds i8, ptr %60, i64 1
  store ptr %61, ptr %5, align 8
  br label %62

62:                                               ; preds = %81, %59
  %63 = call ptr @__ctype_b_loc() #12
  %64 = load ptr, ptr %63, align 8
  %65 = load ptr, ptr %5, align 8
  %66 = load i8, ptr %65, align 1
  %67 = sext i8 %66 to i32
  %68 = sext i32 %67 to i64
  %69 = getelementptr inbounds i16, ptr %64, i64 %68
  %70 = load i16, ptr %69, align 2
  %71 = zext i16 %70 to i32
  %72 = and i32 %71, 8192
  %73 = icmp ne i32 %72, 0
  br i1 %73, label %74, label %79

74:                                               ; preds = %62
  %75 = load ptr, ptr %5, align 8
  %76 = load i8, ptr %75, align 1
  %77 = sext i8 %76 to i32
  %78 = icmp ne i32 %77, 0
  br label %79

79:                                               ; preds = %74, %62
  %80 = phi i1 [ false, %62 ], [ %78, %74 ]
  br i1 %80, label %81, label %84

81:                                               ; preds = %79
  %82 = load ptr, ptr %5, align 8
  %83 = getelementptr inbounds i8, ptr %82, i32 1
  store ptr %83, ptr %5, align 8
  br label %62

84:                                               ; preds = %79
  %85 = load ptr, ptr %5, align 8
  store ptr %85, ptr %7, align 8
  %86 = load ptr, ptr %5, align 8
  %87 = load i8, ptr %86, align 1
  %88 = icmp ne i8 %87, 0
  br i1 %88, label %89, label %92

89:                                               ; preds = %84
  %90 = load ptr, ptr %5, align 8
  %91 = getelementptr inbounds i8, ptr %90, i32 1
  store ptr %91, ptr %5, align 8
  br label %92

92:                                               ; preds = %89, %84
  %93 = load ptr, ptr %7, align 8
  %94 = load i8, ptr %93, align 1
  %95 = sext i8 %94 to i32
  %96 = icmp eq i32 %95, 34
  br i1 %96, label %97, label %180

97:                                               ; preds = %92
  %98 = load ptr, ptr %6, align 8
  %99 = call ptr @cli_safer_strdup(ptr noundef %98)
  store ptr %99, ptr %12, align 8
  %100 = load ptr, ptr %12, align 8
  %101 = icmp eq ptr %100, null
  br i1 %101, label %102, label %103

102:                                              ; preds = %97
  br label %240

103:                                              ; preds = %97
  %104 = load ptr, ptr %12, align 8
  %105 = call ptr @strchr(ptr noundef %104, i32 noundef 61) #13
  store ptr %105, ptr %11, align 8
  %106 = load ptr, ptr %11, align 8
  %107 = icmp eq ptr %106, null
  br i1 %107, label %108, label %117

108:                                              ; preds = %103
  %109 = load ptr, ptr %12, align 8
  %110 = call ptr @strchr(ptr noundef %109, i32 noundef 58) #13
  store ptr %110, ptr %11, align 8
  %111 = load ptr, ptr %11, align 8
  %112 = icmp eq ptr %111, null
  br i1 %112, label %113, label %116

113:                                              ; preds = %108
  %114 = load ptr, ptr %4, align 8
  call void (ptr, ...) @cli_dbgmsg(ptr noundef @.str.28, ptr noundef %114)
  %115 = load ptr, ptr %12, align 8
  call void @free(ptr noundef %115) #11
  br label %240

116:                                              ; preds = %108
  br label %117

117:                                              ; preds = %116, %103
  %118 = load ptr, ptr %11, align 8
  store i8 0, ptr %118, align 1
  %119 = load ptr, ptr %7, align 8
  %120 = getelementptr inbounds i8, ptr %119, i32 1
  store ptr %120, ptr %7, align 8
  %121 = call ptr @strchr(ptr noundef %120, i32 noundef 34) #13
  store ptr %121, ptr %5, align 8
  %122 = load ptr, ptr %5, align 8
  %123 = icmp eq ptr %122, null
  br i1 %123, label %124, label %126

124:                                              ; preds = %117
  %125 = load ptr, ptr %4, align 8
  call void (ptr, ...) @cli_dbgmsg(ptr noundef @.str.29, ptr noundef %125)
  store ptr @.str.13, ptr %5, align 8
  br label %129

126:                                              ; preds = %117
  %127 = load ptr, ptr %5, align 8
  %128 = getelementptr inbounds i8, ptr %127, i32 1
  store ptr %128, ptr %5, align 8
  br label %129

129:                                              ; preds = %126, %124
  %130 = load ptr, ptr %12, align 8
  %131 = call i32 @usefulArg(ptr noundef %130)
  %132 = icmp ne i32 %131, 0
  br i1 %132, label %135, label %133

133:                                              ; preds = %129
  %134 = load ptr, ptr %12, align 8
  call void @free(ptr noundef %134) #11
  br label %20

135:                                              ; preds = %129
  %136 = load ptr, ptr %7, align 8
  %137 = call ptr @cli_safer_strdup(ptr noundef %136)
  store ptr %137, ptr %8, align 8
  %138 = load ptr, ptr %8, align 8
  %139 = icmp ne ptr %138, null
  br i1 %139, label %143, label %140

140:                                              ; preds = %135
  %141 = load ptr, ptr %4, align 8
  call void (ptr, ...) @cli_dbgmsg(ptr noundef @.str.30, ptr noundef %141)
  %142 = load ptr, ptr %12, align 8
  call void @free(ptr noundef %142) #11
  br label %240

143:                                              ; preds = %135
  %144 = load ptr, ptr %8, align 8
  %145 = call ptr @strchr(ptr noundef %144, i32 noundef 34) #13
  store ptr %145, ptr %11, align 8
  %146 = load ptr, ptr %11, align 8
  %147 = icmp eq ptr %146, null
  br i1 %147, label %148, label %149

148:                                              ; preds = %143
  br label %151

149:                                              ; preds = %143
  %150 = load ptr, ptr %11, align 8
  store i8 0, ptr %150, align 1
  br label %151

151:                                              ; preds = %149, %148
  %152 = load ptr, ptr %12, align 8
  %153 = call i64 @strlen(ptr noundef %152) #13
  %154 = load ptr, ptr %8, align 8
  %155 = call i64 @strlen(ptr noundef %154) #13
  %156 = add i64 %153, %155
  %157 = add i64 %156, 2
  store i64 %157, ptr %10, align 8
  %158 = load ptr, ptr %12, align 8
  %159 = load ptr, ptr %12, align 8
  %160 = call i64 @strlen(ptr noundef %159) #13
  %161 = load ptr, ptr %8, align 8
  %162 = call i64 @strlen(ptr noundef %161) #13
  %163 = add i64 %160, %162
  %164 = add i64 %163, 2
  %165 = call ptr @cli_max_realloc(ptr noundef %158, i64 noundef %164)
  store ptr %165, ptr %9, align 8
  %166 = load ptr, ptr %9, align 8
  %167 = icmp ne ptr %166, null
  br i1 %167, label %168, label %176

168:                                              ; preds = %151
  %169 = load ptr, ptr %9, align 8
  %170 = load i64, ptr %10, align 8
  %171 = call i64 @cli_strlcat(ptr noundef %169, ptr noundef @.str.31, i64 noundef %170)
  %172 = load ptr, ptr %9, align 8
  %173 = load ptr, ptr %8, align 8
  %174 = load i64, ptr %10, align 8
  %175 = call i64 @cli_strlcat(ptr noundef %172, ptr noundef %173, i64 noundef %174)
  br label %178

176:                                              ; preds = %151
  %177 = load ptr, ptr %12, align 8
  call void @free(ptr noundef %177) #11
  br label %178

178:                                              ; preds = %176, %168
  %179 = load ptr, ptr %8, align 8
  call void @free(ptr noundef %179) #11
  br label %232

180:                                              ; preds = %92
  %181 = load ptr, ptr %7, align 8
  %182 = load i8, ptr %181, align 1
  %183 = sext i8 %182 to i32
  %184 = icmp eq i32 %183, 0
  br i1 %184, label %185, label %187

185:                                              ; preds = %180
  %186 = load ptr, ptr %4, align 8
  call void (ptr, ...) @cli_dbgmsg(ptr noundef @.str.32, ptr noundef %186)
  br label %240

187:                                              ; preds = %180
  br label %188

188:                                              ; preds = %208, %187
  %189 = load ptr, ptr %5, align 8
  %190 = load i8, ptr %189, align 1
  %191 = sext i8 %190 to i32
  %192 = icmp ne i32 %191, 0
  br i1 %192, label %193, label %206

193:                                              ; preds = %188
  %194 = call ptr @__ctype_b_loc() #12
  %195 = load ptr, ptr %194, align 8
  %196 = load ptr, ptr %5, align 8
  %197 = load i8, ptr %196, align 1
  %198 = sext i8 %197 to i32
  %199 = sext i32 %198 to i64
  %200 = getelementptr inbounds i16, ptr %195, i64 %199
  %201 = load i16, ptr %200, align 2
  %202 = zext i16 %201 to i32
  %203 = and i32 %202, 8192
  %204 = icmp ne i32 %203, 0
  %205 = xor i1 %204, true
  br label %206

206:                                              ; preds = %193, %188
  %207 = phi i1 [ false, %188 ], [ %205, %193 ]
  br i1 %207, label %208, label %211

208:                                              ; preds = %206
  %209 = load ptr, ptr %5, align 8
  %210 = getelementptr inbounds i8, ptr %209, i32 1
  store ptr %210, ptr %5, align 8
  br label %188

211:                                              ; preds = %206
  %212 = load ptr, ptr %5, align 8
  %213 = ptrtoint ptr %212 to i64
  %214 = load ptr, ptr %6, align 8
  %215 = ptrtoint ptr %214 to i64
  %216 = sub i64 %213, %215
  %217 = add i64 %216, 1
  store i64 %217, ptr %13, align 8
  %218 = load i64, ptr %13, align 8
  %219 = call ptr @cli_max_malloc(i64 noundef %218)
  store ptr %219, ptr %9, align 8
  %220 = load ptr, ptr %9, align 8
  %221 = icmp ne ptr %220, null
  br i1 %221, label %222, label %231

222:                                              ; preds = %211
  %223 = load ptr, ptr %9, align 8
  %224 = load ptr, ptr %6, align 8
  %225 = load i64, ptr %13, align 8
  %226 = sub i64 %225, 1
  call void @llvm.memcpy.p0.p0.i64(ptr align 1 %223, ptr align 1 %224, i64 %226, i1 false)
  %227 = load ptr, ptr %9, align 8
  %228 = load i64, ptr %13, align 8
  %229 = sub i64 %228, 1
  %230 = getelementptr inbounds i8, ptr %227, i64 %229
  store i8 0, ptr %230, align 1
  br label %231

231:                                              ; preds = %222, %211
  br label %232

232:                                              ; preds = %231, %178
  %233 = load ptr, ptr %9, align 8
  %234 = icmp ne ptr %233, null
  br i1 %234, label %235, label %239

235:                                              ; preds = %232
  %236 = load ptr, ptr %3, align 8
  %237 = load ptr, ptr %9, align 8
  call void @messageAddArgument(ptr noundef %236, ptr noundef %237)
  %238 = load ptr, ptr %9, align 8
  call void @free(ptr noundef %238) #11
  br label %239

239:                                              ; preds = %235, %232
  br label %20

240:                                              ; preds = %185, %140, %113, %102, %57, %20, %18
  ret void
}