; Function Attrs: nounwind uwtable
define void @messageAddArguments(ptr noundef %0, ptr noundef %1) local_unnamed_addr #2 {
  tail call void (ptr, ...) @cli_dbgmsg(ptr noundef nonnull @.str.26, ptr noundef %1) #21
  %3 = icmp eq ptr %1, null
  br i1 %3, label %6, label %.preheader117

.preheader117:                                    ; preds = %2
  %4 = load i8, ptr %1, align 1
  %.not124 = icmp eq i8 %4, 0
  br i1 %.not124, label %.loopexit, label %.lr.ph126

.lr.ph126:                                        ; preds = %.preheader117
  %5 = tail call ptr @__ctype_b_loc() #22
  br label %7

6:                                                ; preds = %2
  tail call void (ptr, ...) @cli_errmsg(ptr noundef nonnull @.str.27) #21
  br label %.loopexit

7:                                                ; preds = %.lr.ph126, %.backedge
  %8 = phi i8 [ %4, %.lr.ph126 ], [ %17, %.backedge ]
  %.0125 = phi ptr [ %1, %.lr.ph126 ], [ %.0.be, %.backedge ]
  %9 = load ptr, ptr %5, align 8
  %10 = zext i8 %8 to i64
  %11 = getelementptr inbounds i16, ptr %9, i64 %10
  %12 = load i16, ptr %11, align 2
  %13 = and i16 %12, 8192
  %.not92 = icmp ne i16 %13, 0
  %14 = icmp eq i8 %8, 59
  %or.cond = or i1 %14, %.not92
  br i1 %or.cond, label %15, label %18

15:                                               ; preds = %7
  %16 = getelementptr inbounds i8, ptr %.0125, i64 1
  br label %.backedge

.backedge:                                        ; preds = %82, %.thread114, %.critedge2, %15, %50
  %.0.be = phi ptr [ %16, %15 ], [ %.3, %50 ], [ %.5113, %82 ], [ %.3, %.thread114 ], [ %.4.lcssa, %.critedge2 ]
  %17 = load i8, ptr %.0.be, align 1
  %.not = icmp eq i8 %17, 0
  br i1 %.not, label %.loopexit, label %7

18:                                               ; preds = %7
  %19 = tail call ptr @strchr(ptr noundef nonnull dereferenceable(1) %.0125, i32 noundef 61) #23
  %20 = icmp eq ptr %19, null
  br i1 %20, label %21, label %.preheader116.preheader

21:                                               ; preds = %18
  %22 = tail call ptr @strchr(ptr noundef nonnull dereferenceable(1) %.0125, i32 noundef 58) #23
  %23 = icmp eq ptr %22, null
  br i1 %23, label %24, label %.preheader116.preheader

.preheader116.preheader:                          ; preds = %18, %21
  %.077.pn.ph = phi ptr [ %19, %18 ], [ %22, %21 ]
  br label %.preheader116

24:                                               ; preds = %21
  tail call void (ptr, ...) @cli_dbgmsg(ptr noundef nonnull @.str.28, ptr noundef nonnull %1) #21
  br label %.loopexit

.preheader116:                                    ; preds = %.preheader116.preheader, %.preheader116
  %.077.pn = phi ptr [ %.1, %.preheader116 ], [ %.077.pn.ph, %.preheader116.preheader ]
  %.1 = getelementptr inbounds i8, ptr %.077.pn, i64 1
  %25 = load i8, ptr %.1, align 1
  %26 = sext i8 %25 to i64
  %27 = getelementptr inbounds i16, ptr %9, i64 %26
  %28 = load i16, ptr %27, align 2
  %29 = and i16 %28, 8192
  %.not93 = icmp eq i16 %29, 0
  %.not94 = icmp eq i8 %25, 0
  %or.cond103 = or i1 %.not94, %.not93
  br i1 %or.cond103, label %.critedge, label %.preheader116

.critedge:                                        ; preds = %.preheader116
  %30 = getelementptr inbounds i8, ptr %.077.pn, i64 2
  switch i8 %25, label %.preheader [
    i8 34, label %32
    i8 0, label %64
  ]

.preheader:                                       ; preds = %.critedge
  %spec.select = select i1 %.not94, ptr %.1, ptr %30
  %31 = load i8, ptr %30, align 1
  %.not96120 = icmp eq i8 %31, 0
  br i1 %.not96120, label %.critedge2, label %.lr.ph

32:                                               ; preds = %.critedge
  %33 = tail call ptr @cli_safer_strdup(ptr noundef nonnull %.0125) #21
  %34 = icmp eq ptr %33, null
  br i1 %34, label %.loopexit, label %35

35:                                               ; preds = %32
  %36 = tail call ptr @strchr(ptr noundef nonnull dereferenceable(1) %33, i32 noundef 61) #23
  %37 = icmp eq ptr %36, null
  br i1 %37, label %38, label %42

38:                                               ; preds = %35
  %39 = tail call ptr @strchr(ptr noundef nonnull dereferenceable(1) %33, i32 noundef 58) #23
  %40 = icmp eq ptr %39, null
  br i1 %40, label %41, label %42

41:                                               ; preds = %38
  tail call void (ptr, ...) @cli_dbgmsg(ptr noundef nonnull @.str.28, ptr noundef nonnull %1) #21
  tail call void @free(ptr noundef nonnull %33) #21
  br label %.loopexit

42:                                               ; preds = %38, %35
  %.075 = phi ptr [ %39, %38 ], [ %36, %35 ]
  store i8 0, ptr %.075, align 1
  %43 = tail call ptr @strchr(ptr noundef nonnull dereferenceable(1) %30, i32 noundef 34) #23
  %44 = icmp eq ptr %43, null
  br i1 %44, label %45, label %46

45:                                               ; preds = %42
  tail call void (ptr, ...) @cli_dbgmsg(ptr noundef nonnull @.str.29, ptr noundef nonnull %1) #21
  br label %48

46:                                               ; preds = %42
  %47 = getelementptr inbounds i8, ptr %43, i64 1
  br label %48

48:                                               ; preds = %46, %45
  %.3 = phi ptr [ @.str.13, %45 ], [ %47, %46 ]
  %49 = tail call fastcc i32 @usefulArg(ptr noundef nonnull %33), !range !4
  %.not99 = icmp eq i32 %49, 0
  br i1 %.not99, label %50, label %51

50:                                               ; preds = %48
  tail call void @free(ptr noundef nonnull %33) #21
  br label %.backedge

51:                                               ; preds = %48
  %52 = tail call ptr @cli_safer_strdup(ptr noundef nonnull %30) #21
  %.not100 = icmp eq ptr %52, null
  br i1 %.not100, label %53, label %54

53:                                               ; preds = %51
  tail call void (ptr, ...) @cli_dbgmsg(ptr noundef nonnull @.str.30, ptr noundef nonnull %1) #21
  tail call void @free(ptr noundef nonnull %33) #21
  br label %.loopexit

54:                                               ; preds = %51
  %55 = tail call ptr @strchr(ptr noundef nonnull dereferenceable(1) %52, i32 noundef 34) #23
  %56 = icmp eq ptr %55, null
  br i1 %56, label %58, label %57

57:                                               ; preds = %54
  store i8 0, ptr %55, align 1
  br label %58

58:                                               ; preds = %54, %57
  %59 = tail call i64 @strlen(ptr noundef nonnull dereferenceable(1) %33) #23
  %60 = tail call i64 @strlen(ptr noundef nonnull dereferenceable(1) %52) #23
  %61 = add i64 %59, 2
  %62 = add i64 %61, %60
  %63 = tail call ptr @cli_max_realloc(ptr noundef nonnull %33, i64 noundef %62) #21
  %.not101 = icmp eq ptr %63, null
  br i1 %.not101, label %.thread114, label %79

.thread114:                                       ; preds = %58
  tail call void @free(ptr noundef nonnull %33) #21
  tail call void @free(ptr noundef nonnull %52) #21
  br label %.backedge

64:                                               ; preds = %.critedge
  tail call void (ptr, ...) @cli_dbgmsg(ptr noundef nonnull @.str.32, ptr noundef nonnull %1) #21
  br label %.loopexit

.lr.ph:                                           ; preds = %.preheader, %70
  %65 = phi i8 [ %72, %70 ], [ %31, %.preheader ]
  %.4121 = phi ptr [ %71, %70 ], [ %spec.select, %.preheader ]
  %66 = sext i8 %65 to i64
  %67 = getelementptr inbounds i16, ptr %9, i64 %66
  %68 = load i16, ptr %67, align 2
  %69 = and i16 %68, 8192
  %.not97 = icmp eq i16 %69, 0
  br i1 %.not97, label %70, label %.critedge2

70:                                               ; preds = %.lr.ph
  %71 = getelementptr inbounds i8, ptr %.4121, i64 1
  %72 = load i8, ptr %71, align 1
  %.not96 = icmp eq i8 %72, 0
  br i1 %.not96, label %.critedge2, label %.lr.ph

.critedge2:                                       ; preds = %.lr.ph, %70, %.preheader
  %.4.lcssa = phi ptr [ %spec.select, %.preheader ], [ %71, %70 ], [ %.4121, %.lr.ph ]
  %73 = ptrtoint ptr %.4.lcssa to i64
  %74 = ptrtoint ptr %.0125 to i64
  %75 = sub i64 %73, %74
  %76 = add i64 %75, 1
  %77 = tail call ptr @cli_max_malloc(i64 noundef %76) #21
  %.not98 = icmp eq ptr %77, null
  br i1 %.not98, label %.backedge, label %.thread108

.thread108:                                       ; preds = %.critedge2
  tail call void @llvm.memcpy.p0.p0.i64(ptr nonnull align 1 %77, ptr nonnull align 1 %.0125, i64 %75, i1 false)
  %78 = getelementptr inbounds i8, ptr %77, i64 %75
  store i8 0, ptr %78, align 1
  br label %82

79:                                               ; preds = %58
  %80 = tail call i64 @cli_strlcat(ptr noundef nonnull %63, ptr noundef nonnull @.str.31, i64 noundef %62) #21
  %81 = tail call i64 @cli_strlcat(ptr noundef nonnull %63, ptr noundef nonnull %52, i64 noundef %62) #21
  tail call void @free(ptr noundef nonnull %52) #21
  br label %82

82:                                               ; preds = %79, %.thread108
  %.5113 = phi ptr [ %.4.lcssa, %.thread108 ], [ %.3, %79 ]
  %.076112 = phi ptr [ %77, %.thread108 ], [ %63, %79 ]
  tail call void @messageAddArgument(ptr noundef %0, ptr noundef nonnull %.076112)
  tail call void @free(ptr noundef nonnull %.076112) #21
  br label %.backedge

.loopexit:                                        ; preds = %.backedge, %32, %.preheader117, %64, %53, %41, %24, %6
  ret void
}